target datalayout = "e-m:e-p270:32:32-p271:32:32-p272:64:64-i64:64-i128:128-f80:128-n8:16:32:64-S128"
target triple = "x86_64-pc-linux-gnu"

%"class.base::AtExitManager" = type { %"class.base::Lock", %"class.std::stack", i8, ptr }
%"class.base::Lock" = type { %"class.base::internal::LockImpl" }
%"class.base::internal::LockImpl" = type { %union.pthread_mutex_t }
%union.pthread_mutex_t = type { %struct.__pthread_mutex_s }
%struct.__pthread_mutex_s = type { i32, i32, i32, i32, i32, i16, i16, %struct.__pthread_internal_list }
%struct.__pthread_internal_list = type { ptr, ptr }
%"class.std::stack" = type { %"class.std::deque" }
%"class.std::deque" = type { %"class.std::_Deque_base" }
%"class.std::_Deque_base" = type { %"struct.std::_Deque_base<base::Callback<void ()>, std::allocator<base::Callback<void ()>>>::_Deque_impl" }
%"struct.std::_Deque_base<base::Callback<void ()>, std::allocator<base::Callback<void ()>>>::_Deque_impl" = type { %"struct.std::_Deque_base<base::Callback<void ()>, std::allocator<base::Callback<void ()>>>::_Deque_impl_data" }
%"struct.std::_Deque_base<base::Callback<void ()>, std::allocator<base::Callback<void ()>>>::_Deque_impl_data" = type { ptr, i64, %"struct.std::_Deque_iterator", %"struct.std::_Deque_iterator" }
%"struct.std::_Deque_iterator" = type { ptr, ptr, ptr, ptr }

@_ZN4baseL13g_top_managerE = internal global ptr null, align 8

; Function Attrs: mustprogress nounwind uwtable
define linkonce_odr void @_ZNSt15_Deque_iteratorIN4base8CallbackIFvvELNS0_8internal8CopyModeE1ELNS3_10RepeatModeE1EEERS6_PS6_EC2Ev(ptr noundef nonnull align 8 dereferenceable(32) %0) unnamed_addr #1 comdat align 2 {
  %2 = alloca ptr, align 8
  store ptr %0, ptr %2, align 8, !tbaa !48
  %3 = load ptr, ptr %2, align 8
  %4 = getelementptr inbounds nuw %"struct.std::_Deque_iterator", ptr %3, i32 0, i32 0
  store ptr null, ptr %4, align 8, !tbaa !61
  %5 = getelementptr inbounds nuw %"struct.std::_Deque_iterator", ptr %3, i32 0, i32 1
  store ptr null, ptr %5, align 8, !tbaa !63
  %6 = getelementptr inbounds nuw %"struct.std::_Deque_iterator", ptr %3, i32 0, i32 2
  store ptr null, ptr %6, align 8, !tbaa !62
  %7 = getelementptr inbounds nuw %"struct.std::_Deque_iterator", ptr %3, i32 0, i32 3
  store ptr null, ptr %7, align 8, !tbaa !58
  ret void
}

; Function Attrs: mustprogress nounwind uwtable
define linkonce_odr void @_ZNSt15__new_allocatorIN4base8CallbackIFvvELNS0_8internal8CopyModeE1ELNS3_10RepeatModeE1EEEEC2Ev(ptr noundef nonnull align 1 dereferenceable(1) %0) unnamed_addr #1 comdat align 2 {
  %2 = alloca ptr, align 8
  store ptr %0, ptr %2, align 8, !tbaa !67
  ret void
}

; Function Attrs: mustprogress nounwind uwtable
define linkonce_odr void @_ZNSt11_Deque_baseIN4base8CallbackIFvvELNS0_8internal8CopyModeE1ELNS3_10RepeatModeE1EEESaIS6_EE16_Deque_impl_dataC2Ev(ptr noundef nonnull align 8 dereferenceable(80) %0) unnamed_addr #1 comdat align 2 {
  %2 = alloca ptr, align 8
  store ptr %0, ptr %2, align 8, !tbaa !107
  %3 = load ptr, ptr %2, align 8
  %4 = getelementptr inbounds nuw %"struct.std::_Deque_base<base::Callback<void ()>, std::allocator<base::Callback<void ()>>>::_Deque_impl_data", ptr %3, i32 0, i32 0
  store ptr null, ptr %4, align 8, !tbaa !54
  %5 = getelementptr inbounds nuw %"struct.std::_Deque_base<base::Callback<void ()>, std::allocator<base::Callback<void ()>>>::_Deque_impl_data", ptr %3, i32 0, i32 1
  store i64 0, ptr %5, align 8, !tbaa !57
  %6 = getelementptr inbounds nuw %"struct.std::_Deque_base<base::Callback<void ()>, std::allocator<base::Callback<void ()>>>::_Deque_impl_data", ptr %3, i32 0, i32 2
  call void @_ZNSt15_Deque_iteratorIN4base8CallbackIFvvELNS0_8internal8CopyModeE1ELNS3_10RepeatModeE1EEERS6_PS6_EC2Ev(ptr noundef nonnull align 8 dereferenceable(32) %6) #14
  %7 = getelementptr inbounds nuw %"struct.std::_Deque_base<base::Callback<void ()>, std::allocator<base::Callback<void ()>>>::_Deque_impl_data", ptr %3, i32 0, i32 3
  call void @_ZNSt15_Deque_iteratorIN4base8CallbackIFvvELNS0_8internal8CopyModeE1ELNS3_10RepeatModeE1EEERS6_PS6_EC2Ev(ptr noundef nonnull align 8 dereferenceable(32) %7) #14
  ret void
}

; Function Attrs: mustprogress nounwind uwtable
define linkonce_odr void @_ZNSaIN4base8CallbackIFvvELNS_8internal8CopyModeE1ELNS2_10RepeatModeE1EEEEC2Ev(ptr noundef nonnull align 1 dereferenceable(1) %0) unnamed_addr #1 comdat align 2 {
  %2 = alloca ptr, align 8
  store ptr %0, ptr %2, align 8, !tbaa !50
  %3 = load ptr, ptr %2, align 8
  call void @_ZNSt15__new_allocatorIN4base8CallbackIFvvELNS0_8internal8CopyModeE1ELNS3_10RepeatModeE1EEEEC2Ev(ptr noundef nonnull align 1 dereferenceable(1) %3) #14
  ret void
}

; Function Attrs: mustprogress nounwind uwtable
define linkonce_odr void @_ZNSt15__new_allocatorIN4base8CallbackIFvvELNS0_8internal8CopyModeE1ELNS3_10RepeatModeE1EEEED2Ev(ptr noundef nonnull align 1 dereferenceable(1) %0) unnamed_addr #1 comdat align 2 {
  %2 = alloca ptr, align 8
  store ptr %0, ptr %2, align 8, !tbaa !67
  ret void
}

; Function Attrs: mustprogress nounwind uwtable
define linkonce_odr void @_ZNSt11_Deque_baseIN4base8CallbackIFvvELNS0_8internal8CopyModeE1ELNS3_10RepeatModeE1EEESaIS6_EE11_Deque_implC2Ev(ptr noundef nonnull align 8 dereferenceable(80) %0) unnamed_addr #1 comdat align 2 {
  %2 = alloca ptr, align 8
  store ptr %0, ptr %2, align 8, !tbaa !73
  %3 = load ptr, ptr %2, align 8
  call void @_ZNSaIN4base8CallbackIFvvELNS_8internal8CopyModeE1ELNS2_10RepeatModeE1EEEEC2Ev(ptr noundef nonnull align 1 dereferenceable(1) %3) #14
  call void @_ZNSt11_Deque_baseIN4base8CallbackIFvvELNS0_8internal8CopyModeE1ELNS3_10RepeatModeE1EEESaIS6_EE16_Deque_impl_dataC2Ev(ptr noundef nonnull align 8 dereferenceable(80) %3) #14
  ret void
}

; Function Attrs: mustprogress uwtable
define linkonce_odr void @_ZNSt11_Deque_baseIN4base8CallbackIFvvELNS0_8internal8CopyModeE1ELNS3_10RepeatModeE1EEESaIS6_EEC2Ev(ptr noundef nonnull align 8 dereferenceable(80) %0) unnamed_addr #0 comdat align 2 personality ptr @__gxx_personality_v0 {
  %2 = alloca ptr, align 8
  %3 = alloca ptr, align 8
  %4 = alloca i32, align 4
  store ptr %0, ptr %2, align 8, !tbaa !52
  %5 = load ptr, ptr %2, align 8
  %6 = getelementptr inbounds nuw %"class.std::_Deque_base", ptr %5, i32 0, i32 0
  call void @_ZNSt11_Deque_baseIN4base8CallbackIFvvELNS0_8internal8CopyModeE1ELNS3_10RepeatModeE1EEESaIS6_EE11_Deque_implC2Ev(ptr noundef nonnull align 8 dereferenceable(80) %6) #14
  invoke void @_ZNSt11_Deque_baseIN4base8CallbackIFvvELNS0_8internal8CopyModeE1ELNS3_10RepeatModeE1EEESaIS6_EE17_M_initialize_mapEm(ptr noundef nonnull align 8 dereferenceable(80) %5, i64 noundef 0)
          to label %7 unwind label %8

7:                                                ; preds = %1
  ret void

8:                                                ; preds = %1
  %9 = landingpad { ptr, i32 }
          cleanup
  %10 = extractvalue { ptr, i32 } %9, 0
  store ptr %10, ptr %3, align 8
  %11 = extractvalue { ptr, i32 } %9, 1
  store i32 %11, ptr %4, align 4
  call void @_ZNSt15__new_allocatorIN4base8CallbackIFvvELNS0_8internal8CopyModeE1ELNS3_10RepeatModeE1EEEED2Ev(ptr noundef nonnull align 8 dereferenceable(80) %6) #14
  br label %12

12:                                               ; preds = %8
  %13 = load ptr, ptr %3, align 8
  %14 = load i32, ptr %4, align 4
  %15 = insertvalue { ptr, i32 } poison, ptr %13, 0
  %16 = insertvalue { ptr, i32 } %15, i32 %14, 1
  resume { ptr, i32 } %16
}

; Function Attrs: mustprogress uwtable
define linkonce_odr void @_ZNSt5dequeIN4base8CallbackIFvvELNS0_8internal8CopyModeE1ELNS3_10RepeatModeE1EEESaIS6_EEC2Ev(ptr noundef nonnull align 8 dereferenceable(80) %0) unnamed_addr #0 comdat align 2 {
  %2 = alloca ptr, align 8
  store ptr %0, ptr %2, align 8, !tbaa !46
  %3 = load ptr, ptr %2, align 8
  call void @_ZNSt11_Deque_baseIN4base8CallbackIFvvELNS0_8internal8CopyModeE1ELNS3_10RepeatModeE1EEESaIS6_EEC2Ev(ptr noundef nonnull align 8 dereferenceable(80) %3)
  ret void
}

; Function Attrs: mustprogress nounwind uwtable
define linkonce_odr void @_ZN4base4LockD2Ev(ptr noundef nonnull align 8 dereferenceable(40) %0) unnamed_addr #1 comdat align 2 {
  %2 = alloca ptr, align 8
  store ptr %0, ptr %2, align 8, !tbaa !23
  %3 = load ptr, ptr %2, align 8
  %4 = getelementptr inbounds nuw %"class.base::Lock", ptr %3, i32 0, i32 0
  call void @_ZN4base8internal8LockImplD1Ev(ptr noundef nonnull align 8 dereferenceable(40) %4) #14
  ret void
}

; Function Attrs: mustprogress uwtable
define linkonce_odr void @_ZNSt5stackIN4base8CallbackIFvvELNS0_8internal8CopyModeE1ELNS3_10RepeatModeE1EEESt5dequeIS6_SaIS6_EEEC2IS9_vEEv(ptr noundef nonnull align 8 dereferenceable(80) %0) unnamed_addr #0 comdat align 2 {
  %2 = alloca ptr, align 8
  store ptr %0, ptr %2, align 8, !tbaa !25
  %3 = load ptr, ptr %2, align 8
  %4 = getelementptr inbounds nuw %"class.std::stack", ptr %3, i32 0, i32 0
  call void @llvm.memset.p0.i64(ptr align 8 %4, i8 0, i64 80, i1 false)
  call void @_ZNSt5dequeIN4base8CallbackIFvvELNS0_8internal8CopyModeE1ELNS3_10RepeatModeE1EEESaIS6_EEC2Ev(ptr noundef nonnull align 8 dereferenceable(80) %4)
  ret void
}

; Function Attrs: mustprogress uwtable
define linkonce_odr void @_ZN4base4LockC2Ev(ptr noundef nonnull align 8 dereferenceable(40) %0) unnamed_addr #0 comdat align 2 {
  %2 = alloca ptr, align 8
  store ptr %0, ptr %2, align 8, !tbaa !23
  %3 = load ptr, ptr %2, align 8
  %4 = getelementptr inbounds nuw %"class.base::Lock", ptr %3, i32 0, i32 0
  call void @_ZN4base8internal8LockImplC1Ev(ptr noundef nonnull align 8 dereferenceable(40) %4)
  ret void
}

; Function Attrs: mustprogress uwtable
define void @_ZN4base13AtExitManagerC2Ev(ptr noundef nonnull align 8 dereferenceable(136) %0) unnamed_addr #0 align 2 personality ptr @__gxx_personality_v0 {
  %2 = alloca ptr, align 8
  %3 = alloca ptr, align 8
  %4 = alloca i32, align 4
  store ptr %0, ptr %2, align 8, !tbaa !3
  %5 = load ptr, ptr %2, align 8
  %6 = getelementptr inbounds nuw %"class.base::AtExitManager", ptr %5, i32 0, i32 0
  call void @_ZN4base4LockC2Ev(ptr noundef nonnull align 8 dereferenceable(40) %6)
  %7 = getelementptr inbounds nuw %"class.base::AtExitManager", ptr %5, i32 0, i32 1
  invoke void @_ZNSt5stackIN4base8CallbackIFvvELNS0_8internal8CopyModeE1ELNS3_10RepeatModeE1EEESt5dequeIS6_SaIS6_EEEC2IS9_vEEv(ptr noundef nonnull align 8 dereferenceable(80) %7)
          to label %8 unwind label %12

8:                                                ; preds = %1
  %9 = getelementptr inbounds nuw %"class.base::AtExitManager", ptr %5, i32 0, i32 2
  store i8 0, ptr %9, align 8, !tbaa !8
  %10 = getelementptr inbounds nuw %"class.base::AtExitManager", ptr %5, i32 0, i32 3
  %11 = load ptr, ptr @_ZN4baseL13g_top_managerE, align 8, !tbaa !3
  store ptr %11, ptr %10, align 8, !tbaa !22
  store ptr %5, ptr @_ZN4baseL13g_top_managerE, align 8, !tbaa !3
  ret void

12:                                               ; preds = %1
  %13 = landingpad { ptr, i32 }
          cleanup
  %14 = extractvalue { ptr, i32 } %13, 0
  store ptr %14, ptr %3, align 8
  %15 = extractvalue { ptr, i32 } %13, 1
  store i32 %15, ptr %4, align 4
  call void @_ZN4base4LockD2Ev(ptr noundef nonnull align 8 dereferenceable(40) %6) #14
  br label %16

16:                                               ; preds = %12
  %17 = load ptr, ptr %3, align 8
  %18 = load i32, ptr %4, align 4
  %19 = insertvalue { ptr, i32 } poison, ptr %17, 0
  %20 = insertvalue { ptr, i32 } %19, i32 %18, 1
  resume { ptr, i32 } %20
}