; Function Attrs: mustprogress uwtable
define void @_ZN4base13AtExitManagerC2Ev(ptr noundef nonnull align 8 dereferenceable(136) %0) unnamed_addr #0 align 2 personality ptr @__gxx_personality_v0 {
  tail call void @_ZN4base8internal8LockImplC1Ev(ptr noundef nonnull align 8 dereferenceable(40) %0)
  %2 = getelementptr inbounds nuw i8, ptr %0, i64 40
  tail call void @llvm.memset.p0.i64(ptr noundef nonnull align 8 dereferenceable(80) %2, i8 0, i64 80, i1 false)
  invoke void @_ZNSt11_Deque_baseIN4base8CallbackIFvvELNS0_8internal8CopyModeE1ELNS3_10RepeatModeE1EEESaIS6_EE17_M_initialize_mapEm(ptr noundef nonnull align 8 dereferenceable(80) %2, i64 noundef 0)
          to label %_ZNSt5stackIN4base8CallbackIFvvELNS0_8internal8CopyModeE1ELNS3_10RepeatModeE1EEESt5dequeIS6_SaIS6_EEEC2IS9_vEEv.exit unwind label %6

_ZNSt5stackIN4base8CallbackIFvvELNS0_8internal8CopyModeE1ELNS3_10RepeatModeE1EEESt5dequeIS6_SaIS6_EEEC2IS9_vEEv.exit: ; preds = %1
  %3 = getelementptr inbounds nuw i8, ptr %0, i64 120
  store i8 0, ptr %3, align 8, !tbaa !3
  %4 = getelementptr inbounds nuw i8, ptr %0, i64 128
  %5 = load ptr, ptr @_ZN4baseL13g_top_managerE, align 8, !tbaa !21
  store ptr %5, ptr %4, align 8, !tbaa !22
  store ptr %0, ptr @_ZN4baseL13g_top_managerE, align 8, !tbaa !21
  ret void

6:                                                ; preds = %1
  %7 = landingpad { ptr, i32 }
          cleanup
  tail call void @_ZN4base8internal8LockImplD1Ev(ptr noundef nonnull align 8 dereferenceable(40) %0) #13
  resume { ptr, i32 } %7
}